; Function Attrs: mustprogress nofree norecurse nosync nounwind willreturn memory(argmem: read) uwtable
define hidden noundef i32 @_ZN12mpff_manager17prev_power_of_twoERK4mpff(ptr noundef nonnull readonly align 8 captures(none) dereferenceable(89) %0, ptr noundef nonnull readonly align 4 captures(none) dereferenceable(8) %1) local_unnamed_addr #14 align 2 {
  %3 = load i32, ptr %1, align 4
  %4 = and i32 %3, 1
  %5 = icmp eq i32 %4, 0
  %6 = icmp ugt i32 %3, 1
  %7 = and i1 %6, %5
  br i1 %7, label %8, label %17

8:                                                ; preds = %2
  %9 = getelementptr inbounds nuw i8, ptr %1, i64 4
  %10 = load i32, ptr %9, align 4, !tbaa !35
  %11 = getelementptr inbounds nuw i8, ptr %0, i64 4
  %12 = load i32, ptr %11, align 4, !tbaa !18
  %13 = sub nsw i32 0, %12
  %.not = icmp sgt i32 %10, %13
  br i1 %.not, label %14, label %17

14:                                               ; preds = %8
  %15 = add nsw i32 %10, -1
  %16 = add i32 %15, %12
  br label %17

17:                                               ; preds = %8, %2, %14
  %.0 = phi i32 [ %16, %14 ], [ 0, %2 ], [ 0, %8 ]
  ret i32 %.0
}